; Function Attrs: mustprogress uwtable
define internal fastcc noundef zeroext i1 @_ZN10duckdb_re2L11IsValidUTF8ERKNS_11StringPieceEPNS_12RegexpStatusE(ptr noundef nonnull readonly align 8 captures(none) dereferenceable(16) %0, ptr noundef writeonly captures(address_is_null) %1) unnamed_addr #9 {
  %3 = alloca i32, align 4
  %.sroa.0.0.copyload = load ptr, ptr %0, align 8, !tbaa !17
  %.sroa.7.0..sroa_idx = getelementptr inbounds nuw i8, ptr %0, i64 8
  %.sroa.7.0.copyload = load i64, ptr %.sroa.7.0..sroa_idx, align 8, !tbaa !18
  call void @llvm.lifetime.start.p0(i64 4, ptr nonnull %3) #32
  br label %4

4:                                                ; preds = %_ZN10duckdb_re2L17StringPieceToRuneEPiPNS_11StringPieceEPNS_12RegexpStatusE.exit, %2
  %.sroa.7.0 = phi i64 [ %.sroa.7.0.copyload, %2 ], [ %20, %_ZN10duckdb_re2L17StringPieceToRuneEPiPNS_11StringPieceEPNS_12RegexpStatusE.exit ]
  %.sroa.0.0 = phi ptr [ %.sroa.0.0.copyload, %2 ], [ %19, %_ZN10duckdb_re2L17StringPieceToRuneEPiPNS_11StringPieceEPNS_12RegexpStatusE.exit ]
  %5 = icmp eq i64 %.sroa.7.0, 0
  br i1 %5, label %_ZN10duckdb_re2L17StringPieceToRuneEPiPNS_11StringPieceEPNS_12RegexpStatusE.exit.thread, label %6

6:                                                ; preds = %4
  %.sroa.speculated.i = call i64 @llvm.umin.i64(i64 %.sroa.7.0, i64 4)
  %7 = trunc nuw nsw i64 %.sroa.speculated.i to i32
  %8 = call noundef i32 @_ZN10duckdb_re28fullruneEPKci(ptr noundef %.sroa.0.0, i32 noundef %7)
  %.not.i = icmp eq i32 %8, 0
  br i1 %.not.i, label %.thread28.i, label %9

9:                                                ; preds = %6
  %10 = call noundef i32 @_ZN10duckdb_re210chartoruneEPiPKc(ptr noundef nonnull %3, ptr noundef %.sroa.0.0)
  %11 = load i32, ptr %3, align 4, !tbaa !3
  %12 = icmp sgt i32 %11, 1114111
  br i1 %12, label %.thread28.i, label %13

13:                                               ; preds = %9
  %14 = icmp eq i32 %10, 1
  %15 = icmp eq i32 %11, 65533
  %or.cond.i = and i1 %14, %15
  br i1 %or.cond.i, label %.thread28.i, label %_ZN10duckdb_re2L17StringPieceToRuneEPiPNS_11StringPieceEPNS_12RegexpStatusE.exit

.thread28.i:                                      ; preds = %13, %6, %9
  %.not18.i = icmp eq ptr %1, null
  br i1 %.not18.i, label %_ZN10duckdb_re2L17StringPieceToRuneEPiPNS_11StringPieceEPNS_12RegexpStatusE.exit.thread, label %16

16:                                               ; preds = %.thread28.i
  store i32 13, ptr %1, align 8, !tbaa !58
  %17 = getelementptr inbounds nuw i8, ptr %1, i64 8
  call void @llvm.memset.p0.i64(ptr noundef nonnull align 8 dereferenceable(16) %17, i8 0, i64 16, i1 false)
  br label %_ZN10duckdb_re2L17StringPieceToRuneEPiPNS_11StringPieceEPNS_12RegexpStatusE.exit.thread

_ZN10duckdb_re2L17StringPieceToRuneEPiPNS_11StringPieceEPNS_12RegexpStatusE.exit: ; preds = %13
  %18 = sext i32 %10 to i64
  %19 = getelementptr inbounds nuw i8, ptr %.sroa.0.0, i64 %18
  %20 = sub i64 %.sroa.7.0, %18
  %21 = icmp slt i32 %10, 0
  br i1 %21, label %_ZN10duckdb_re2L17StringPieceToRuneEPiPNS_11StringPieceEPNS_12RegexpStatusE.exit.thread, label %4, !llvm.loop !185

_ZN10duckdb_re2L17StringPieceToRuneEPiPNS_11StringPieceEPNS_12RegexpStatusE.exit.thread: ; preds = %4, %_ZN10duckdb_re2L17StringPieceToRuneEPiPNS_11StringPieceEPNS_12RegexpStatusE.exit, %.thread28.i, %16
  %22 = phi i1 [ false, %.thread28.i ], [ false, %16 ], [ %5, %_ZN10duckdb_re2L17StringPieceToRuneEPiPNS_11StringPieceEPNS_12RegexpStatusE.exit ], [ %5, %4 ]
  call void @llvm.lifetime.end.p0(i64 4, ptr nonnull %3) #32
  ret i1 %22
}